target datalayout = "e-m:e-p270:32:32-p271:32:32-p272:64:64-i64:64-i128:128-f80:128-n8:16:32:64-S128"
target triple = "x86_64-pc-linux-gnu"

%"class.icu_77::LocalPointerBase.5" = type { ptr }
%"struct.(anonymous namespace)::VariantListEntry" = type { ptr, ptr }

; Function Attrs: mustprogress nounwind uwtable
define internal noundef ptr @_ZN6icu_7716LocalPointerBaseIN12_GLOBAL__N_116VariantListEntryEE6orphanEv(ptr noundef nonnull align 8 dereferenceable(8) %0) #0 align 2 {
  %2 = alloca ptr, align 8
  %3 = alloca ptr, align 8
  store ptr %0, ptr %2, align 8, !tbaa !136
  %4 = load ptr, ptr %2, align 8
  call void @llvm.lifetime.start.p0(i64 8, ptr %3) #12
  %5 = getelementptr inbounds nuw %"class.icu_77::LocalPointerBase.5", ptr %4, i32 0, i32 0
  %6 = load ptr, ptr %5, align 8, !tbaa !138
  store ptr %6, ptr %3, align 8, !tbaa !65
  %7 = getelementptr inbounds nuw %"class.icu_77::LocalPointerBase.5", ptr %4, i32 0, i32 0
  store ptr null, ptr %7, align 8, !tbaa !138
  %8 = load ptr, ptr %3, align 8, !tbaa !65
  call void @llvm.lifetime.end.p0(i64 8, ptr %3) #12
  ret ptr %8
}

; Function Attrs: mustprogress nounwind uwtable
define internal noundef ptr @_ZNK6icu_7716LocalPointerBaseIN12_GLOBAL__N_116VariantListEntryEEptEv(ptr noundef nonnull align 8 dereferenceable(8) %0) #0 align 2 {
  %2 = alloca ptr, align 8
  store ptr %0, ptr %2, align 8, !tbaa !136
  %3 = load ptr, ptr %2, align 8
  %4 = getelementptr inbounds nuw %"class.icu_77::LocalPointerBase.5", ptr %3, i32 0, i32 0
  %5 = load ptr, ptr %4, align 8, !tbaa !138
  ret ptr %5
}

; Function Attrs: mustprogress uwtable
define internal noundef zeroext i1 @_ZN12_GLOBAL__N_117_addVariantToListEPPNS_16VariantListEntryEN6icu_7712LocalPointerIS0_EE(ptr noundef %0, ptr noundef %1) #1 {
  %3 = alloca i1, align 1
  %4 = alloca ptr, align 8
  %5 = alloca ptr, align 8
  %6 = alloca ptr, align 8
  %7 = alloca ptr, align 8
  %8 = alloca i32, align 4
  %9 = alloca i32, align 4
  store ptr %0, ptr %4, align 8, !tbaa !140
  store ptr %1, ptr %5, align 8, !tbaa !134
  %10 = load ptr, ptr %4, align 8, !tbaa !140
  %11 = load ptr, ptr %10, align 8, !tbaa !65
  %12 = icmp eq ptr %11, null
  br i1 %12, label %13, label %18

13:                                               ; preds = %2
  %14 = call noundef ptr @_ZNK6icu_7716LocalPointerBaseIN12_GLOBAL__N_116VariantListEntryEEptEv(ptr noundef nonnull align 8 dereferenceable(8) %1)
  %15 = getelementptr inbounds nuw %"struct.(anonymous namespace)::VariantListEntry", ptr %14, i32 0, i32 1
  store ptr null, ptr %15, align 8, !tbaa !71
  %16 = call noundef ptr @_ZN6icu_7716LocalPointerBaseIN12_GLOBAL__N_116VariantListEntryEE6orphanEv(ptr noundef nonnull align 8 dereferenceable(8) %1)
  %17 = load ptr, ptr %4, align 8, !tbaa !140
  store ptr %16, ptr %17, align 8, !tbaa !65
  br label %51

18:                                               ; preds = %2
  call void @llvm.lifetime.start.p0(i64 8, ptr %6) #12
  call void @llvm.lifetime.start.p0(i64 8, ptr %7) #12
  call void @llvm.lifetime.start.p0(i64 4, ptr %8) #12
  store ptr null, ptr %6, align 8, !tbaa !65
  %19 = load ptr, ptr %4, align 8, !tbaa !140
  %20 = load ptr, ptr %19, align 8, !tbaa !65
  store ptr %20, ptr %7, align 8, !tbaa !65
  br label %21

21:                                               ; preds = %42, %18
  br label %22

22:                                               ; preds = %21
  %23 = load ptr, ptr %7, align 8, !tbaa !65
  %24 = icmp eq ptr %23, null
  br i1 %24, label %25, label %31

25:                                               ; preds = %22
  %26 = call noundef ptr @_ZNK6icu_7716LocalPointerBaseIN12_GLOBAL__N_116VariantListEntryEEptEv(ptr noundef nonnull align 8 dereferenceable(8) %1)
  %27 = getelementptr inbounds nuw %"struct.(anonymous namespace)::VariantListEntry", ptr %26, i32 0, i32 1
  store ptr null, ptr %27, align 8, !tbaa !71
  %28 = call noundef ptr @_ZN6icu_7716LocalPointerBaseIN12_GLOBAL__N_116VariantListEntryEE6orphanEv(ptr noundef nonnull align 8 dereferenceable(8) %1)
  %29 = load ptr, ptr %6, align 8, !tbaa !65
  %30 = getelementptr inbounds nuw %"struct.(anonymous namespace)::VariantListEntry", ptr %29, i32 0, i32 1
  store ptr %28, ptr %30, align 8, !tbaa !71
  br label %47

31:                                               ; preds = %22
  %32 = call noundef ptr @_ZNK6icu_7716LocalPointerBaseIN12_GLOBAL__N_116VariantListEntryEEptEv(ptr noundef nonnull align 8 dereferenceable(8) %1)
  %33 = getelementptr inbounds nuw %"struct.(anonymous namespace)::VariantListEntry", ptr %32, i32 0, i32 0
  %34 = load ptr, ptr %33, align 8, !tbaa !68
  %35 = load ptr, ptr %7, align 8, !tbaa !65
  %36 = getelementptr inbounds nuw %"struct.(anonymous namespace)::VariantListEntry", ptr %35, i32 0, i32 0
  %37 = load ptr, ptr %36, align 8, !tbaa !68
  %38 = call i32 @strcmp(ptr noundef %34, ptr noundef %37) #15
  store i32 %38, ptr %8, align 4, !tbaa !14
  %39 = load i32, ptr %8, align 4, !tbaa !14
  %40 = icmp eq i32 %39, 0
  br i1 %40, label %41, label %42

41:                                               ; preds = %31
  store i1 false, ptr %3, align 1
  store i32 1, ptr %9, align 4
  br label %48

42:                                               ; preds = %31
  %43 = load ptr, ptr %7, align 8, !tbaa !65
  store ptr %43, ptr %6, align 8, !tbaa !65
  %44 = load ptr, ptr %7, align 8, !tbaa !65
  %45 = getelementptr inbounds nuw %"struct.(anonymous namespace)::VariantListEntry", ptr %44, i32 0, i32 1
  %46 = load ptr, ptr %45, align 8, !tbaa !71
  store ptr %46, ptr %7, align 8, !tbaa !65
  br label %21, !llvm.loop !142

47:                                               ; preds = %25
  store i32 0, ptr %9, align 4
  br label %48

48:                                               ; preds = %47, %41
  call void @llvm.lifetime.end.p0(i64 4, ptr %8) #12
  call void @llvm.lifetime.end.p0(i64 8, ptr %7) #12
  call void @llvm.lifetime.end.p0(i64 8, ptr %6) #12
  %49 = load i32, ptr %9, align 4
  switch i32 %49, label %54 [
    i32 0, label %50
    i32 1, label %52
  ]

50:                                               ; preds = %48
  br label %51

51:                                               ; preds = %50, %13
  store i1 true, ptr %3, align 1
  br label %52

52:                                               ; preds = %51, %48
  %53 = load i1, ptr %3, align 1
  ret i1 %53

54:                                               ; preds = %48
  unreachable
}