; Function Attrs: mustprogress nofree nounwind memory(readwrite, inaccessiblemem: none) uwtable
define internal fastcc noundef zeroext i1 @_ZN12_GLOBAL__N_117_addVariantToListEPPNS_16VariantListEntryEN6icu_7712LocalPointerIS0_EE(ptr noundef captures(none) %0, ptr noundef nonnull captures(none) %1) unnamed_addr #12 {
  %3 = load ptr, ptr %0, align 8, !tbaa !48
  %4 = icmp eq ptr %3, null
  %.val15 = load ptr, ptr %1, align 8, !tbaa !122
  br i1 %4, label %6, label %.preheader

.preheader:                                       ; preds = %2
  %5 = load ptr, ptr %.val15, align 8, !tbaa !41
  br label %10

6:                                                ; preds = %2
  %7 = getelementptr inbounds nuw i8, ptr %.val15, i64 8
  store ptr null, ptr %7, align 8, !tbaa !44
  store ptr null, ptr %1, align 8, !tbaa !122
  store ptr %.val15, ptr %0, align 8, !tbaa !48
  br label %.loopexit

.thread:                                          ; preds = %14
  %8 = getelementptr inbounds nuw i8, ptr %.01118, i64 8
  %9 = getelementptr inbounds nuw i8, ptr %.val15, i64 8
  store ptr null, ptr %9, align 8, !tbaa !44
  store ptr null, ptr %1, align 8, !tbaa !122
  store ptr %.val15, ptr %8, align 8, !tbaa !44
  br label %.loopexit

10:                                               ; preds = %.preheader, %14
  %.01118 = phi ptr [ %3, %.preheader ], [ %16, %14 ]
  %11 = load ptr, ptr %.01118, align 8, !tbaa !41
  %12 = tail call i32 @strcmp(ptr noundef nonnull dereferenceable(1) %5, ptr noundef nonnull dereferenceable(1) %11) #20
  %13 = icmp eq i32 %12, 0
  br i1 %13, label %.loopexit, label %14

14:                                               ; preds = %10
  %15 = getelementptr inbounds nuw i8, ptr %.01118, i64 8
  %16 = load ptr, ptr %15, align 8, !tbaa !44
  %.not = icmp eq ptr %16, null
  br i1 %.not, label %.thread, label %10, !llvm.loop !46

.loopexit:                                        ; preds = %10, %6, %.thread
  %.1 = phi i1 [ true, %.thread ], [ true, %6 ], [ false, %10 ]
  ret i1 %.1
}